; ModuleID = '63/1413.c'
source_filename = "63/1413.c"
target datalayout = "e-m:e-p270:32:32-p271:32:32-p272:64:64-i64:64-f80:128-n8:16:32:64-S128"
target triple = "x86_64-pc-linux-gnu"

@.str = private unnamed_addr constant [6 x i8] c"%d %d\00", align 1
@.str.1 = private unnamed_addr constant [3 x i8] c"%d\00", align 1
@.str.2 = private unnamed_addr constant [4 x i8] c"%d \00", align 1
@.str.3 = private unnamed_addr constant [4 x i8] c"%d\0A\00", align 1

; Function Attrs: noinline nounwind uwtable
define dso_local i32 @main() #0 {
  %1 = alloca i32, align 4
  %2 = alloca i32, align 4
  %3 = alloca i32, align 4
  %4 = alloca i8*, align 8
  %5 = alloca i64, align 8
  %6 = alloca i64, align 8
  %7 = alloca i32, align 4
  %8 = alloca i32, align 4
  %9 = alloca i32, align 4
  %10 = alloca i32, align 4
  %11 = alloca i64, align 8
  %12 = alloca i64, align 8
  %13 = alloca i32, align 4
  %14 = alloca i32, align 4
  %15 = alloca i64, align 8
  %16 = alloca i64, align 8
  %17 = alloca i32, align 4
  %18 = alloca i32, align 4
  %19 = alloca i32, align 4
  store i32 0, i32* %1, align 4
  %20 = call i32 (i8*, ...) @__isoc99_scanf(i8* getelementptr inbounds ([6 x i8], [6 x i8]* @.str, i64 0, i64 0), i32* %2, i32* %3)
  %21 = load i32, i32* %2, align 4
  %22 = zext i32 %21 to i64
  %23 = load i32, i32* %3, align 4
  %24 = zext i32 %23 to i64
  %25 = call i8* @llvm.stacksave()
  store i8* %25, i8** %4, align 8
  %26 = mul nuw i64 %22, %24
  %27 = alloca i32, i64 %26, align 16
  store i64 %22, i64* %5, align 8
  store i64 %24, i64* %6, align 8
  store i32 0, i32* %7, align 4
  br label %28

28:                                               ; preds = %50, %0
  %29 = load i32, i32* %7, align 4
  %30 = load i32, i32* %2, align 4
  %31 = icmp slt i32 %29, %30
  br i1 %31, label %32, label %53

32:                                               ; preds = %28
  store i32 0, i32* %8, align 4
  br label %33

33:                                               ; preds = %46, %32
  %34 = load i32, i32* %8, align 4
  %35 = load i32, i32* %3, align 4
  %36 = icmp slt i32 %34, %35
  br i1 %36, label %37, label %49

37:                                               ; preds = %33
  %38 = load i32, i32* %7, align 4
  %39 = sext i32 %38 to i64
  %40 = mul nsw i64 %39, %24
  %41 = getelementptr inbounds i32, i32* %27, i64 %40
  %42 = load i32, i32* %8, align 4
  %43 = sext i32 %42 to i64
  %44 = getelementptr inbounds i32, i32* %41, i64 %43
  %45 = call i32 (i8*, ...) @__isoc99_scanf(i8* getelementptr inbounds ([3 x i8], [3 x i8]* @.str.1, i64 0, i64 0), i32* %44)
  br label %46

46:                                               ; preds = %37
  %47 = load i32, i32* %8, align 4
  %48 = add nsw i32 %47, 1
  store i32 %48, i32* %8, align 4
  br label %33

49:                                               ; preds = %33
  br label %50

50:                                               ; preds = %49
  %51 = load i32, i32* %7, align 4
  %52 = add nsw i32 %51, 1
  store i32 %52, i32* %7, align 4
  br label %28

53:                                               ; preds = %28
  %54 = call i32 (i8*, ...) @__isoc99_scanf(i8* getelementptr inbounds ([6 x i8], [6 x i8]* @.str, i64 0, i64 0), i32* %9, i32* %10)
  %55 = load i32, i32* %9, align 4
  %56 = zext i32 %55 to i64
  %57 = load i32, i32* %10, align 4
  %58 = zext i32 %57 to i64
  %59 = mul nuw i64 %56, %58
  %60 = alloca i32, i64 %59, align 16
  store i64 %56, i64* %11, align 8
  store i64 %58, i64* %12, align 8
  store i32 0, i32* %13, align 4
  br label %61

61:                                               ; preds = %83, %53
  %62 = load i32, i32* %13, align 4
  %63 = load i32, i32* %9, align 4
  %64 = icmp slt i32 %62, %63
  br i1 %64, label %65, label %86

65:                                               ; preds = %61
  store i32 0, i32* %14, align 4
  br label %66

66:                                               ; preds = %79, %65
  %67 = load i32, i32* %14, align 4
  %68 = load i32, i32* %10, align 4
  %69 = icmp slt i32 %67, %68
  br i1 %69, label %70, label %82

70:                                               ; preds = %66
  %71 = load i32, i32* %13, align 4
  %72 = sext i32 %71 to i64
  %73 = mul nsw i64 %72, %58
  %74 = getelementptr inbounds i32, i32* %60, i64 %73
  %75 = load i32, i32* %14, align 4
  %76 = sext i32 %75 to i64
  %77 = getelementptr inbounds i32, i32* %74, i64 %76
  %78 = call i32 (i8*, ...) @__isoc99_scanf(i8* getelementptr inbounds ([3 x i8], [3 x i8]* @.str.1, i64 0, i64 0), i32* %77)
  br label %79

79:                                               ; preds = %70
  %80 = load i32, i32* %14, align 4
  %81 = add nsw i32 %80, 1
  store i32 %81, i32* %14, align 4
  br label %66

82:                                               ; preds = %66
  br label %83

83:                                               ; preds = %82
  %84 = load i32, i32* %13, align 4
  %85 = add nsw i32 %84, 1
  store i32 %85, i32* %13, align 4
  br label %61

86:                                               ; preds = %61
  %87 = load i32, i32* %2, align 4
  %88 = zext i32 %87 to i64
  %89 = load i32, i32* %10, align 4
  %90 = zext i32 %89 to i64
  %91 = mul nuw i64 %88, %90
  %92 = alloca i32, i64 %91, align 16
  store i64 %88, i64* %15, align 8
  store i64 %90, i64* %16, align 8
  store i32 0, i32* %17, align 4
  br label %93

93:                                               ; preds = %174, %86
  %94 = load i32, i32* %17, align 4
  %95 = load i32, i32* %2, align 4
  %96 = icmp slt i32 %94, %95
  br i1 %96, label %97, label %177

97:                                               ; preds = %93
  store i32 0, i32* %18, align 4
  br label %98

98:                                               ; preds = %170, %97
  %99 = load i32, i32* %18, align 4
  %100 = load i32, i32* %10, align 4
  %101 = icmp slt i32 %99, %100
  br i1 %101, label %102, label %173

102:                                              ; preds = %98
  %103 = load i32, i32* %17, align 4
  %104 = sext i32 %103 to i64
  %105 = mul nsw i64 %104, %90
  %106 = getelementptr inbounds i32, i32* %92, i64 %105
  %107 = load i32, i32* %18, align 4
  %108 = sext i32 %107 to i64
  %109 = getelementptr inbounds i32, i32* %106, i64 %108
  store i32 0, i32* %109, align 4
  store i32 0, i32* %19, align 4
  br label %110

110:                                              ; preds = %141, %102
  %111 = load i32, i32* %19, align 4
  %112 = load i32, i32* %9, align 4
  %113 = icmp slt i32 %111, %112
  br i1 %113, label %114, label %144

114:                                              ; preds = %110
  %115 = load i32, i32* %17, align 4
  %116 = sext i32 %115 to i64
  %117 = mul nsw i64 %116, %24
  %118 = getelementptr inbounds i32, i32* %27, i64 %117
  %119 = load i32, i32* %19, align 4
  %120 = sext i32 %119 to i64
  %121 = getelementptr inbounds i32, i32* %118, i64 %120
  %122 = load i32, i32* %121, align 4
  %123 = load i32, i32* %19, align 4
  %124 = sext i32 %123 to i64
  %125 = mul nsw i64 %124, %58
  %126 = getelementptr inbounds i32, i32* %60, i64 %125
  %127 = load i32, i32* %18, align 4
  %128 = sext i32 %127 to i64
  %129 = getelementptr inbounds i32, i32* %126, i64 %128
  %130 = load i32, i32* %129, align 4
  %131 = mul nsw i32 %122, %130
  %132 = load i32, i32* %17, align 4
  %133 = sext i32 %132 to i64
  %134 = mul nsw i64 %133, %90
  %135 = getelementptr inbounds i32, i32* %92, i64 %134
  %136 = load i32, i32* %18, align 4
  %137 = sext i32 %136 to i64
  %138 = getelementptr inbounds i32, i32* %135, i64 %137
  %139 = load i32, i32* %138, align 4
  %140 = add nsw i32 %139, %131
  store i32 %140, i32* %138, align 4
  br label %141

141:                                              ; preds = %114
  %142 = load i32, i32* %19, align 4
  %143 = add nsw i32 %142, 1
  store i32 %143, i32* %19, align 4
  br label %110

144:                                              ; preds = %110
  %145 = load i32, i32* %18, align 4
  %146 = load i32, i32* %10, align 4
  %147 = sub nsw i32 %146, 1
  %148 = icmp ne i32 %145, %147
  br i1 %148, label %149, label %159

149:                                              ; preds = %144
  %150 = load i32, i32* %17, align 4
  %151 = sext i32 %150 to i64
  %152 = mul nsw i64 %151, %90
  %153 = getelementptr inbounds i32, i32* %92, i64 %152
  %154 = load i32, i32* %18, align 4
  %155 = sext i32 %154 to i64
  %156 = getelementptr inbounds i32, i32* %153, i64 %155
  %157 = load i32, i32* %156, align 4
  %158 = call i32 (i8*, ...) @printf(i8* getelementptr inbounds ([4 x i8], [4 x i8]* @.str.2, i64 0, i64 0), i32 %157)
  br label %169

159:                                              ; preds = %144
  %160 = load i32, i32* %17, align 4
  %161 = sext i32 %160 to i64
  %162 = mul nsw i64 %161, %90
  %163 = getelementptr inbounds i32, i32* %92, i64 %162
  %164 = load i32, i32* %18, align 4
  %165 = sext i32 %164 to i64
  %166 = getelementptr inbounds i32, i32* %163, i64 %165
  %167 = load i32, i32* %166, align 4
  %168 = call i32 (i8*, ...) @printf(i8* getelementptr inbounds ([4 x i8], [4 x i8]* @.str.3, i64 0, i64 0), i32 %167)
  br label %169

169:                                              ; preds = %159, %149
  br label %170

170:                                              ; preds = %169
  %171 = load i32, i32* %18, align 4
  %172 = add nsw i32 %171, 1
  store i32 %172, i32* %18, align 4
  br label %98

173:                                              ; preds = %98
  br label %174

174:                                              ; preds = %173
  %175 = load i32, i32* %17, align 4
  %176 = add nsw i32 %175, 1
  store i32 %176, i32* %17, align 4
  br label %93

177:                                              ; preds = %93
  %178 = load i8*, i8** %4, align 8
  call void @llvm.stackrestore(i8* %178)
  %179 = load i32, i32* %1, align 4
  ret i32 %179
}

declare dso_local i32 @__isoc99_scanf(i8*, ...) #1

; Function Attrs: nounwind
declare i8* @llvm.stacksave() #2

declare dso_local i32 @printf(i8*, ...) #1

; Function Attrs: nounwind
declare void @llvm.stackrestore(i8*) #2


!llvm.module.flags = !{!0}
!llvm.ident = !{!1}

!0 = !{i32 1, !"wchar_size", i32 4}
!1 = !{!"clang version 10.0.0-4ubuntu1 "}
